target datalayout = "e-m:e-p270:32:32-p271:32:32-p272:64:64-i64:64-i128:128-f80:128-n8:16:32:64-S128"
target triple = "x86_64-pc-linux-gnu"

%struct._generic_SUNLinearSolver = type { ptr, ptr, ptr }
%struct._SUNLinearSolverContent_Dense = type { i64, ptr, i64 }

; Function Attrs: nounwind uwtable
define i32 @SUNLinSolSolve_Dense(ptr noundef %0, ptr noundef %1, ptr noundef %2, ptr noundef %3, double noundef %4) #0 {
  %6 = alloca ptr, align 8
  %7 = alloca ptr, align 8
  %8 = alloca ptr, align 8
  %9 = alloca ptr, align 8
  %10 = alloca double, align 8
  %11 = alloca ptr, align 8
  %12 = alloca ptr, align 8
  %13 = alloca ptr, align 8
  %14 = alloca ptr, align 8
  store ptr %0, ptr %6, align 8, !tbaa !14
  store ptr %1, ptr %7, align 8, !tbaa !8
  store ptr %2, ptr %8, align 8, !tbaa !3
  store ptr %3, ptr %9, align 8, !tbaa !3
  store double %4, ptr %10, align 8, !tbaa !40
  call void @llvm.lifetime.start.p0(i64 8, ptr %11) #5
  %15 = load ptr, ptr %6, align 8, !tbaa !14
  %16 = getelementptr inbounds nuw %struct._generic_SUNLinearSolver, ptr %15, i32 0, i32 2
  %17 = load ptr, ptr %16, align 8, !tbaa !36
  store ptr %17, ptr %11, align 8, !tbaa !10
  call void @llvm.lifetime.start.p0(i64 8, ptr %12) #5
  call void @llvm.lifetime.start.p0(i64 8, ptr %13) #5
  call void @llvm.lifetime.start.p0(i64 8, ptr %14) #5
  %18 = load ptr, ptr %9, align 8, !tbaa !3
  %19 = load ptr, ptr %8, align 8, !tbaa !3
  call void @N_VScale(double noundef 1.000000e+00, ptr noundef %18, ptr noundef %19)
  store ptr null, ptr %12, align 8, !tbaa !37
  store ptr null, ptr %13, align 8, !tbaa !42
  store ptr null, ptr %14, align 8, !tbaa !39
  %20 = load ptr, ptr %7, align 8, !tbaa !8
  %21 = call ptr @SUNDenseMatrix_Cols(ptr noundef %20)
  store ptr %21, ptr %12, align 8, !tbaa !37
  %22 = load ptr, ptr %8, align 8, !tbaa !3
  %23 = call ptr @N_VGetArrayPointer(ptr noundef %22)
  store ptr %23, ptr %13, align 8, !tbaa !42
  %24 = load ptr, ptr %6, align 8, !tbaa !14
  %25 = getelementptr inbounds nuw %struct._generic_SUNLinearSolver, ptr %24, i32 0, i32 0
  %26 = load ptr, ptr %25, align 8, !tbaa !30
  %27 = getelementptr inbounds nuw %struct._SUNLinearSolverContent_Dense, ptr %26, i32 0, i32 1
  %28 = load ptr, ptr %27, align 8, !tbaa !35
  store ptr %28, ptr %14, align 8, !tbaa !39
  %29 = load ptr, ptr %12, align 8, !tbaa !37
  %30 = load ptr, ptr %7, align 8, !tbaa !8
  %31 = call i64 @SUNDenseMatrix_Rows(ptr noundef %30)
  %32 = load ptr, ptr %14, align 8, !tbaa !39
  %33 = load ptr, ptr %13, align 8, !tbaa !42
  call void @SUNDlsMat_denseGETRS(ptr noundef %29, i64 noundef %31, ptr noundef %32, ptr noundef %33)
  %34 = load ptr, ptr %6, align 8, !tbaa !14
  %35 = getelementptr inbounds nuw %struct._generic_SUNLinearSolver, ptr %34, i32 0, i32 0
  %36 = load ptr, ptr %35, align 8, !tbaa !30
  %37 = getelementptr inbounds nuw %struct._SUNLinearSolverContent_Dense, ptr %36, i32 0, i32 2
  store i64 0, ptr %37, align 8, !tbaa !34
  call void @llvm.lifetime.end.p0(i64 8, ptr %14) #5
  call void @llvm.lifetime.end.p0(i64 8, ptr %13) #5
  call void @llvm.lifetime.end.p0(i64 8, ptr %12) #5
  call void @llvm.lifetime.end.p0(i64 8, ptr %11) #5
  ret i32 0
}