; Function Attrs: nounwind uwtable
define noundef i32 @SUNLinSolSolve_Dense(ptr noundef readonly captures(none) %0, ptr noundef %1, ptr noundef %2, ptr noundef %3, double %4) #0 {
  tail call void @N_VScale(double noundef 1.000000e+00, ptr noundef %3, ptr noundef %2) #9
  %6 = tail call ptr @SUNDenseMatrix_Cols(ptr noundef %1) #9
  %7 = tail call ptr @N_VGetArrayPointer(ptr noundef %2) #9
  %8 = load ptr, ptr %0, align 8, !tbaa !19
  %9 = getelementptr inbounds nuw i8, ptr %8, i64 8
  %10 = load ptr, ptr %9, align 8, !tbaa !24
  %11 = tail call i64 @SUNDenseMatrix_Rows(ptr noundef %1) #9
  tail call void @SUNDlsMat_denseGETRS(ptr noundef %6, i64 noundef %11, ptr noundef %10, ptr noundef %7) #9
  %12 = load ptr, ptr %0, align 8, !tbaa !19
  %13 = getelementptr inbounds nuw i8, ptr %12, i64 16
  store i64 0, ptr %13, align 8, !tbaa !25
  ret i32 0
}